(dp1
S''
(dp2
(I-1
I1
I0
tp3
F-0.0099999999903223804
s(I0
I1
I1
tp4
F-0.010000000000000665
s(I-1
I1
I1
tp5
F-0.0099999999999319834
s(I1
I0
I0
tp6
F0.023563493612617684
s(I1
I1
I0
tp7
F-0.0099998795724691152
s(I0
I0
I1
tp8
F-0.0089627821752688783
s(I1
I0
I1
tp9
F-0.010000000000000418
s(I-1
I0
I1
tp10
F-0.010000000000000167
s(I0
I0
I0
tp11
F-0.0099999999598990672
s(I-1
I0
I0
tp12
F-0.0099999999999955593
s(I0
I1
I0
tp13
F-0.0099999991485902068
s(I1
I1
I1
tp14
F-0.0099862021042657761
ssS'    $$     ?   '
p15
(dp16
(I-1
I1
I0
tp17
I0
s(I0
I1
I1
tp18
I0
s(I1
I1
I0
tp19
I0
s(I1
I0
I0
tp20
I0
s(I-1
I1
I1
tp21
I0
s(I0
I0
I1
tp22
F-0.0010000000000000009
s(I1
I0
I1
tp23
I0
s(I-1
I0
I1
tp24
I0
s(I0
I0
I0
tp25
I0
s(I-1
I0
I0
tp26
I0
s(I0
I1
I0
tp27
I0
s(I1
I1
I1
tp28
I0
ssS' 7 $ '
p29
(dp30
(I-1
I1
I0
tp31
F-0.0040951000000000529
s(I0
I1
I1
tp32
F-0.0019000000000000017
s(I-1
I1
I1
tp33
F-0.0010000000000000232
s(I1
I0
I0
tp34
F-0.0010000000000000232
s(I1
I1
I0
tp35
I0
s(I0
I0
I1
tp36
F-0.0027100000000001602
s(I1
I0
I1
tp37
I0
s(I-1
I0
I1
tp38
F-0.0056953279000000728
s(I0
I0
I0
tp39
I0
s(I-1
I0
I0
tp40
F-0.0027100000000000561
s(I0
I1
I0
tp41
I0
s(I1
I1
I1
tp42
F-0.00814697981114826
ssS'7     7    7777          '
p43
(dp44
(I-1
I1
I0
tp45
I0
s(I0
I1
I1
tp46
I0
s(I-1
I1
I1
tp47
F-0.0019000000000000683
s(I1
I0
I0
tp48
I0
s(I1
I1
I0
tp49
I0
s(I0
I0
I1
tp50
I0
s(I1
I0
I1
tp51
I0
s(I-1
I0
I1
tp52
I0
s(I0
I0
I0
tp53
I0
s(I-1
I0
I0
tp54
I0
s(I0
I1
I0
tp55
I0
s(I1
I1
I1
tp56
I0
ssS'     7777 M              '
p57
(dp58
(I-1
I1
I0
tp59
F-0.0056953279000001075
s(I0
I1
I1
tp60
I0
s(I-1
I1
I1
tp61
F-0.0010000000000001564
s(I1
I0
I0
tp62
I0
s(I1
I1
I0
tp63
F-0.0010000000000000009
s(I0
I0
I1
tp64
I0
s(I1
I0
I1
tp65
F-0.0034390000000000791
s(I-1
I0
I1
tp66
I0
s(I0
I0
I0
tp67
I0
s(I-1
I0
I0
tp68
I0
s(I0
I1
I0
tp69
I0
s(I1
I1
I1
tp70
F-0.0010000000000000232
ssS'7777        M            '
p71
(dp72
(I-1
I1
I0
tp73
F-0.0027100000000000847
s(I0
I1
I1
tp74
I0
s(I-1
I1
I1
tp75
I0
s(I1
I0
I0
tp76
I0
s(I1
I1
I0
tp77
I0
s(I0
I0
I1
tp78
I0
s(I1
I0
I1
tp79
I0
s(I-1
I0
I1
tp80
I0
s(I0
I0
I0
tp81
I0
s(I-1
I0
I0
tp82
I0
s(I0
I1
I0
tp83
F-0.0010000000000000232
s(I1
I1
I1
tp84
I0
ssS'         777   '
p85
(dp86
(I-1
I1
I0
tp87
F-0.0092023355692316157
s(I0
I1
I1
tp88
F-0.0027100000000000691
s(I-1
I1
I1
tp89
F-0.0010000000000000009
s(I1
I0
I0
tp90
F-0.0046855900000000381
s(I1
I1
I0
tp91
F-0.0056953279000003607
s(I0
I0
I1
tp92
F-0.0010000000000000009
s(I1
I0
I1
tp93
F-0.0010000000000000232
s(I-1
I0
I1
tp94
I0
s(I0
I0
I0
tp95
F-0.0019000000000000839
s(I-1
I0
I0
tp96
F-0.0019000000000001639
s(I0
I1
I0
tp97
F-0.0010000000000000232
s(I1
I1
I1
tp98
F-0.0010000000000000232
ssS'777         M            '
p99
(dp100
(I-1
I1
I0
tp101
F-0.0061257951100002215
s(I0
I1
I1
tp102
F-0.0010000000000000009
s(I-1
I1
I1
tp103
I0
s(I1
I0
I0
tp104
F-0.0010000000000000232
s(I1
I1
I0
tp105
I0
s(I0
I0
I1
tp106
F-0.0034390000000000774
s(I1
I0
I1
tp107
I0
s(I-1
I0
I1
tp108
F-0.0040951000000001205
s(I0
I0
I0
tp109
F-0.0027100000000001385
s(I-1
I0
I0
tp110
F-0.0010000000000000232
s(I0
I1
I0
tp111
F-0.0010000000000001564
s(I1
I1
I1
tp112
F-0.0019000000000001416
ssS'7    7     7    7777     '
p113
(dp114
(I-1
I1
I0
tp115
F-0.0019000000000000241
s(I0
I1
I1
tp116
F-0.0010000000000001564
s(I-1
I1
I1
tp117
F-0.0019000000000001416
s(I1
I0
I0
tp118
I0
s(I1
I1
I0
tp119
F-0.0010000000000000232
s(I0
I0
I1
tp120
I0
s(I1
I0
I1
tp121
I0
s(I-1
I0
I1
tp122
I0
s(I0
I0
I0
tp123
I0
s(I-1
I0
I0
tp124
I0
s(I0
I1
I0
tp125
I0
s(I1
I1
I1
tp126
I0
ssS'7777777777     777       '
p127
(dp128
(I-1
I1
I0
tp129
F-0.0027100000000002105
s(I0
I1
I1
tp130
F-0.0090152290978165288
s(I-1
I1
I1
tp131
F-0.0010000000000000232
s(I1
I0
I0
tp132
F-0.0027100000000000847
s(I1
I1
I0
tp133
I0
s(I0
I0
I1
tp134
F-0.0010000000000000232
s(I1
I0
I1
tp135
F-0.0034390000000000375
s(I-1
I0
I1
tp136
I0
s(I0
I0
I0
tp137
F-0.0034390000000000453
s(I-1
I0
I0
tp138
I0
s(I0
I1
I0
tp139
F-0.0019000000000001572
s(I1
I1
I1
tp140
I0
ssS'          7    77777     '
p141
(dp142
(I-1
I1
I0
tp143
F-0.0094766523669729263
s(I0
I1
I1
tp144
I0
s(I-1
I1
I1
tp145
F-0.0040951000000001569
s(I1
I0
I0
tp146
F-0.0010000000000000009
s(I1
I1
I0
tp147
F-0.0056953279000001326
s(I0
I0
I1
tp148
F-0.0040951000000001413
s(I1
I0
I1
tp149
I0
s(I-1
I0
I1
tp150
F-0.0019000000000002082
s(I0
I0
I0
tp151
F-0.0010000000000000009
s(I-1
I0
I0
tp152
F-0.0034390000000002452
s(I0
I1
I0
tp153
F-0.0010000000000000009
s(I1
I1
I1
tp154
F-0.0027100000000000561
ssS'  77   $  '
p155
(dp156
(I-1
I1
I0
tp157
I0
s(I0
I1
I1
tp158
I0
s(I1
I1
I0
tp159
I0
s(I1
I0
I0
tp160
I0
s(I-1
I1
I1
tp161
I0
s(I0
I0
I1
tp162
F-0.0034390000000001242
s(I1
I0
I1
tp163
I0
s(I-1
I0
I1
tp164
F-0.0010000000000000232
s(I0
I0
I0
tp165
I0
s(I-1
I0
I0
tp166
I0
s(I0
I1
I0
tp167
I0
s(I1
I1
I1
tp168
I0
ssS'7777777777     7         '
p169
(dp170
(I-1
I1
I0
tp171
F-0.0019000000000000017
s(I0
I1
I1
tp172
F-0.0027100000000000787
s(I-1
I1
I1
tp173
I0
s(I1
I0
I0
tp174
F-0.0010000000000000009
s(I1
I1
I0
tp175
I0
s(I0
I0
I1
tp176
F-0.0027100000000000691
s(I1
I0
I1
tp177
F-0.0056953279000000979
s(I-1
I0
I1
tp178
I0
s(I0
I0
I0
tp179
I0
s(I-1
I0
I0
tp180
I0
s(I0
I1
I0
tp181
F-0.0010000000000001564
s(I1
I1
I1
tp182
I0
ssS'     7    77777          '
p183
(dp184
(I-1
I1
I0
tp185
F-0.0019000000000000219
s(I0
I1
I1
tp186
F0.046854626932166729
s(I-1
I1
I1
tp187
I0
s(I1
I0
I0
tp188
I0
s(I1
I1
I0
tp189
F-0.0010000000000000675
s(I0
I0
I1
tp190
F-0.0052170310000000872
s(I1
I0
I1
tp191
F-0.0010000000000000232
s(I-1
I0
I1
tp192
F-0.0027100000000001073
s(I0
I0
I0
tp193
I0
s(I-1
I0
I0
tp194
F-0.0019000000000000683
s(I0
I1
I0
tp195
F-0.0010000000000000009
s(I1
I1
I1
tp196
F-0.0010000000000000675
ssS'  777                    '
p197
(dp198
(I-1
I1
I0
tp199
I0
s(I0
I1
I1
tp200
I0
s(I-1
I1
I1
tp201
I0
s(I1
I0
I0
tp202
I0
s(I1
I1
I0
tp203
I0
s(I0
I0
I1
tp204
I0
s(I1
I0
I1
tp205
F-0.0010000000000000009
s(I-1
I0
I1
tp206
I0
s(I0
I0
I0
tp207
I0
s(I-1
I0
I0
tp208
I0
s(I0
I1
I0
tp209
I0
s(I1
I1
I1
tp210
I0
ssS'   $$$    ?b   '
p211
(dp212
(I-1
I1
I0
tp213
F-0.0010000000000000232
s(I0
I1
I1
tp214
I0
s(I-1
I1
I1
tp215
I0
s(I1
I0
I0
tp216
I0
s(I1
I1
I0
tp217
I0
s(I0
I0
I1
tp218
I0
s(I1
I0
I1
tp219
I0
s(I-1
I0
I1
tp220
I0
s(I0
I0
I0
tp221
I0
s(I-1
I0
I0
tp222
I0
s(I0
I1
I0
tp223
I0
s(I1
I1
I1
tp224
I0
ssS'      777   $$$'
p225
(dp226
(I-1
I1
I0
tp227
F-0.0010000000000000009
s(I0
I1
I1
tp228
I0
s(I-1
I1
I1
tp229
I0
s(I1
I0
I0
tp230
I0
s(I1
I1
I0
tp231
I0
s(I0
I0
I1
tp232
I0
s(I1
I0
I1
tp233
I0
s(I-1
I0
I1
tp234
I0
s(I0
I0
I0
tp235
I0
s(I-1
I0
I0
tp236
I0
s(I0
I1
I0
tp237
I0
s(I1
I1
I1
tp238
I0
ssS'    7777      $     '
p239
(dp240
(I-1
I1
I0
tp241
I0
s(I0
I1
I1
tp242
I0
s(I1
I1
I0
tp243
I0
s(I1
I0
I0
tp244
I0
s(I-1
I1
I1
tp245
I0
s(I0
I0
I1
tp246
I0
s(I1
I0
I1
tp247
I0
s(I-1
I0
I1
tp248
I0
s(I0
I0
I0
tp249
I0
s(I-1
I0
I0
tp250
I0
s(I0
I1
I0
tp251
I0
s(I1
I1
I1
tp252
I0
ssS'777                      '
p253
(dp254
(I-1
I1
I0
tp255
F-0.0010000000000000009
s(I0
I1
I1
tp256
F-0.0010000000000000009
s(I-1
I1
I1
tp257
I0
s(I1
I0
I0
tp258
I0
s(I1
I1
I0
tp259
I0
s(I0
I0
I1
tp260
I0
s(I1
I0
I1
tp261
I0
s(I-1
I0
I1
tp262
I0
s(I0
I0
I0
tp263
F-0.0010000000000000232
s(I-1
I0
I0
tp264
I0
s(I0
I1
I0
tp265
I0
s(I1
I1
I1
tp266
I0
ssS' 7777     M              '
p267
(dp268
(I-1
I1
I0
tp269
F-0.0027100000000001424
s(I0
I1
I1
tp270
I0
s(I-1
I1
I1
tp271
F-0.0010000000000000009
s(I1
I0
I0
tp272
F-0.0019000000000000241
s(I1
I1
I0
tp273
I0
s(I0
I0
I1
tp274
I0
s(I1
I0
I1
tp275
F-0.0010000000000000009
s(I-1
I0
I1
tp276
I0
s(I0
I0
I0
tp277
I0
s(I-1
I0
I0
tp278
F-0.0010000000000000009
s(I0
I1
I0
tp279
I0
s(I1
I1
I1
tp280
I0
ssS'    77777   M            '
p281
(dp282
(I-1
I1
I0
tp283
F-0.0074581341716710419
s(I0
I1
I1
tp284
F-0.0087842334540946514
s(I-1
I1
I1
tp285
F-0.0061257951100002006
s(I1
I0
I0
tp286
F-0.0061257951100000662
s(I1
I1
I0
tp287
F-0.0061257951100000541
s(I0
I0
I1
tp288
F-0.0040951000000001075
s(I1
I0
I1
tp289
F-0.0034390000000001182
s(I-1
I0
I1
tp290
F-0.0034390000000000033
s(I0
I0
I0
tp291
F-0.0034390000000000852
s(I-1
I0
I0
tp292
F-0.0040951000000000182
s(I0
I1
I0
tp293
F-0.0099988389369298526
s(I1
I1
I1
tp294
F-0.0065132155990001049
ssS'  777  77777M      7     '
p295
(dp296
(I-1
I1
I0
tp297
I0
s(I0
I1
I1
tp298
F-0.0010000000000000675
s(I-1
I1
I1
tp299
I0
s(I1
I0
I0
tp300
I0
s(I1
I1
I0
tp301
F-0.0010000000000000009
s(I0
I0
I1
tp302
I0
s(I1
I0
I1
tp303
I0
s(I-1
I0
I1
tp304
I0
s(I0
I0
I0
tp305
I0
s(I-1
I0
I0
tp306
I0
s(I0
I1
I0
tp307
I0
s(I1
I1
I1
tp308
I0
ssS'   77777   M             '
p309
(dp310
(I-1
I1
I0
tp311
I0
s(I0
I1
I1
tp312
I0
s(I-1
I1
I1
tp313
I0
s(I1
I0
I0
tp314
I0
s(I1
I1
I0
tp315
I0
s(I0
I0
I1
tp316
I0
s(I1
I0
I1
tp317
I0
s(I-1
I0
I1
tp318
I0
s(I0
I0
I0
tp319
I0
s(I-1
I0
I0
tp320
I0
s(I0
I1
I0
tp321
I0
s(I1
I1
I1
tp322
I0
ssS'   $$$     ?   '
p323
(dp324
(I-1
I1
I0
tp325
F-0.0010000000000000232
s(I0
I1
I1
tp326
I0
s(I-1
I1
I1
tp327
I0
s(I1
I0
I0
tp328
I0
s(I1
I1
I0
tp329
I0
s(I0
I0
I1
tp330
I0
s(I1
I0
I1
tp331
I0
s(I-1
I0
I1
tp332
I0
s(I0
I0
I0
tp333
F-0.0010000000000000232
s(I-1
I0
I0
tp334
I0
s(I0
I1
I0
tp335
I0
s(I1
I1
I1
tp336
F-0.0010000000000000232
ssS'      77  '
p337
(dp338
(I-1
I1
I0
tp339
F-0.0019000000000000683
s(I0
I1
I1
tp340
F-0.0090152290978166155
s(I-1
I1
I1
tp341
F-0.0010000000000000675
s(I1
I0
I0
tp342
F-0.0046855900000000589
s(I1
I1
I0
tp343
F-0.0019000000000000017
s(I0
I0
I1
tp344
F-0.0034390000000001295
s(I1
I0
I1
tp345
F-0.0010000000000000009
s(I-1
I0
I1
tp346
F-0.0010000000000000675
s(I0
I0
I0
tp347
F-0.0010000000000000009
s(I-1
I0
I0
tp348
I0
s(I0
I1
I0
tp349
I0
s(I1
I1
I1
tp350
F-0.0019000000000000017
ssS'       777 M             '
p351
(dp352
(I-1
I1
I0
tp353
I0
s(I0
I1
I1
tp354
I0
s(I-1
I1
I1
tp355
I0
s(I1
I0
I0
tp356
I0
s(I1
I1
I0
tp357
I0
s(I0
I0
I1
tp358
F-0.0019000000000000219
s(I1
I0
I1
tp359
I0
s(I-1
I0
I1
tp360
I0
s(I0
I0
I0
tp361
I0
s(I-1
I0
I0
tp362
I0
s(I0
I1
I0
tp363
I0
s(I1
I1
I1
tp364
I0
ssS'  77  $$  '
p365
(dp366
(I-1
I1
I0
tp367
F-0.0046855900000000415
s(I0
I1
I1
tp368
F-0.0010000000000000232
s(I-1
I1
I1
tp369
F-0.0019000000000001772
s(I1
I0
I0
tp370
F-0.0065132155990001014
s(I1
I1
I0
tp371
F-0.0019000000000000219
s(I0
I0
I1
tp372
F-0.0040951000000000676
s(I1
I0
I1
tp373
F-0.0074581341716710749
s(I-1
I0
I1
tp374
F-0.009282102012308455
s(I0
I0
I0
tp375
F-0.0052170310000000056
s(I-1
I0
I0
tp376
F-0.0010000000000000009
s(I0
I1
I0
tp377
F-0.0034390000000000232
s(I1
I1
I1
tp378
F-0.0027100000000000631
ssS'77       7 M             '
p379
(dp380
(I-1
I1
I0
tp381
I0
s(I0
I1
I1
tp382
F-0.0019000000000001281
s(I-1
I1
I1
tp383
I0
s(I1
I0
I0
tp384
I0
s(I1
I1
I0
tp385
I0
s(I0
I0
I1
tp386
F-0.0010000000000000009
s(I1
I0
I1
tp387
I0
s(I-1
I0
I1
tp388
I0
s(I0
I0
I0
tp389
I0
s(I-1
I0
I0
tp390
I0
s(I0
I1
I0
tp391
I0
s(I1
I1
I1
tp392
I0
ssS'777  777     7    77     '
p393
(dp394
(I-1
I1
I0
tp395
I0
s(I0
I1
I1
tp396
F-0.0010000000000000675
s(I-1
I1
I1
tp397
F-0.0010000000000000009
s(I1
I0
I0
tp398
F-0.0010000000000001564
s(I1
I1
I0
tp399
I0
s(I0
I0
I1
tp400
F-0.0027100000000000023
s(I1
I0
I1
tp401
I0
s(I-1
I0
I1
tp402
I0
s(I0
I0
I0
tp403
I0
s(I-1
I0
I0
tp404
I0
s(I0
I1
I0
tp405
I0
s(I1
I1
I1
tp406
I0
ssS'7777777777               '
p407
(dp408
(I-1
I1
I0
tp409
F-0.004095100000000104
s(I0
I1
I1
tp410
F-0.0019000000000000883
s(I-1
I1
I1
tp411
F-0.0010000000000000009
s(I1
I0
I0
tp412
I0
s(I1
I1
I0
tp413
I0
s(I0
I0
I1
tp414
F-0.0010000000000000009
s(I1
I0
I1
tp415
I0
s(I-1
I0
I1
tp416
I0
s(I0
I0
I0
tp417
I0
s(I-1
I0
I0
tp418
I0
s(I0
I1
I0
tp419
I0
s(I1
I1
I1
tp420
F-0.0010000000000000232
ssS'     77777        $$     '
p421
(dp422
(I-1
I1
I0
tp423
F-0.0010000000000000675
s(I0
I1
I1
tp424
I0
s(I-1
I1
I1
tp425
I0
s(I1
I0
I0
tp426
F-0.0010000000000000232
s(I1
I1
I0
tp427
I0
s(I0
I0
I1
tp428
F-0.0010000000000000232
s(I1
I0
I1
tp429
F-0.0019000000000000017
s(I-1
I0
I1
tp430
I0
s(I0
I0
I0
tp431
I0
s(I-1
I0
I0
tp432
F-0.0019000000000000883
s(I0
I1
I0
tp433
F-0.0010000000000000009
s(I1
I1
I1
tp434
F-0.001900000000000044
ssS'    7      M             '
p435
(dp436
(I-1
I1
I0
tp437
I0
s(I0
I1
I1
tp438
I0
s(I-1
I1
I1
tp439
I0
s(I1
I0
I0
tp440
I0
s(I1
I1
I0
tp441
I0
s(I0
I0
I1
tp442
I0
s(I1
I0
I1
tp443
I0
s(I-1
I0
I1
tp444
I0
s(I0
I0
I0
tp445
I0
s(I-1
I0
I0
tp446
I0
s(I0
I1
I0
tp447
I0
s(I1
I1
I1
tp448
F-0.0010000000000000232
ssS' 7    7777               '
p449
(dp450
(I-1
I1
I0
tp451
F-0.0010000000000000675
s(I0
I1
I1
tp452
F0.046937048521716165
s(I-1
I1
I1
tp453
F-0.0027100000000000405
s(I1
I0
I0
tp454
F-0.0019000000000000219
s(I1
I1
I0
tp455
F-0.0010000000000000232
s(I0
I0
I1
tp456
F-0.0010000000000000009
s(I1
I0
I1
tp457
F-0.0027100000000000561
s(I-1
I0
I1
tp458
F-0.003439000000000057
s(I0
I0
I0
tp459
F-0.0010000000000000009
s(I-1
I0
I0
tp460
I0
s(I0
I1
I0
tp461
F-0.0065132155990001422
s(I1
I1
I1
tp462
F-0.0019000000000000883
ssS'          7b   '
p463
(dp464
(I-1
I1
I0
tp465
I0
s(I0
I1
I1
tp466
I0
s(I1
I1
I0
tp467
I0
s(I1
I0
I0
tp468
I0
s(I-1
I1
I1
tp469
I0
s(I0
I0
I1
tp470
I0
s(I1
I0
I1
tp471
I0
s(I-1
I0
I1
tp472
I0
s(I0
I0
I0
tp473
I0
s(I-1
I0
I0
tp474
I0
s(I0
I1
I0
tp475
I0
s(I1
I1
I1
tp476
I0
ssS'                    '
p477
(dp478
(I-1
I1
I0
tp479
I0
s(I0
I1
I1
tp480
I0
s(I1
I1
I0
tp481
I0
s(I1
I0
I0
tp482
I0
s(I-1
I1
I1
tp483
F-0.0010000000000000232
s(I0
I0
I1
tp484
F-0.0010000000000000232
s(I1
I0
I1
tp485
I0
s(I-1
I0
I1
tp486
I0
s(I0
I0
I0
tp487
I0
s(I-1
I0
I0
tp488
I0
s(I0
I1
I0
tp489
I0
s(I1
I1
I1
tp490
I0
ssS'       b  '
p491
(dp492
(I-1
I1
I0
tp493
I0
s(I0
I1
I1
tp494
I0
s(I1
I1
I0
tp495
I0
s(I1
I0
I0
tp496
I0
s(I-1
I1
I1
tp497
I0
s(I0
I0
I1
tp498
I0
s(I1
I0
I1
tp499
I0
s(I-1
I0
I1
tp500
I0
s(I0
I0
I0
tp501
I0
s(I-1
I0
I0
tp502
I0
s(I0
I1
I0
tp503
I0
s(I1
I1
I1
tp504
I0
ssS'77777     M 777          '
p505
(dp506
(I-1
I1
I0
tp507
I0
s(I0
I1
I1
tp508
F-0.0010000000000000232
s(I-1
I1
I1
tp509
F-0.0010000000000000009
s(I1
I0
I0
tp510
F-0.0010000000000000009
s(I1
I1
I0
tp511
I0
s(I0
I0
I1
tp512
I0
s(I1
I0
I1
tp513
F-0.0010000000000000675
s(I-1
I0
I1
tp514
F-0.0027100000000001827
s(I0
I0
I0
tp515
F0.046927350784418301
s(I-1
I0
I0
tp516
I0
s(I0
I1
I0
tp517
F-0.0034390000000000579
s(I1
I1
I1
tp518
F0.046927350784418301
ssS'7    77777               '
p519
(dp520
(I-1
I1
I0
tp521
F0.036104084484888638
s(I0
I1
I1
tp522
F-0.009618479575523347
s(I-1
I1
I1
tp523
F-0.0027100000000000691
s(I1
I0
I0
tp524
F0.036074271549612527
s(I1
I1
I0
tp525
F-0.0010000000000000009
s(I0
I0
I1
tp526
F-0.0046855900000001968
s(I1
I0
I1
tp527
I0
s(I-1
I0
I1
tp528
F-0.0010000000000000009
s(I0
I0
I0
tp529
F-0.0068618940391002772
s(I-1
I0
I0
tp530
F-0.0019000000000000017
s(I0
I1
I0
tp531
F-0.0034390000000000696
s(I1
I1
I1
tp532
F-0.0052170310000001314
ssS'     77777         $     '
p533
(dp534
(I-1
I1
I0
tp535
F-0.0019000000000000683
s(I0
I1
I1
tp536
F-0.0096566316179710222
s(I-1
I1
I1
tp537
F-0.004095100000000091
s(I1
I0
I0
tp538
F-0.004095100000000117
s(I1
I1
I0
tp539
I0
s(I0
I0
I1
tp540
I0
s(I1
I0
I1
tp541
F-0.0019000000000000017
s(I-1
I0
I1
tp542
F-0.0056953279000001907
s(I0
I0
I0
tp543
F-0.0019000000000000241
s(I-1
I0
I0
tp544
F-0.0019000000000000241
s(I0
I1
I0
tp545
F-0.0061257951100001512
s(I1
I1
I1
tp546
F0.046897335317707643
ssS'          ?b   '
p547
(dp548
(I-1
I1
I0
tp549
F-0.0010000000000000675
s(I0
I1
I1
tp550
I0
s(I1
I1
I0
tp551
I0
s(I1
I0
I0
tp552
I0
s(I-1
I1
I1
tp553
I0
s(I0
I0
I1
tp554
I0
s(I1
I0
I1
tp555
I0
s(I-1
I0
I1
tp556
I0
s(I0
I0
I0
tp557
I0
s(I-1
I0
I0
tp558
I0
s(I0
I1
I0
tp559
I0
s(I1
I1
I1
tp560
I0
ssS'   777         '
p561
(dp562
(I-1
I1
I0
tp563
I0
s(I0
I1
I1
tp564
I0
s(I1
I1
I0
tp565
F-0.0019000000000000883
s(I1
I0
I0
tp566
I0
s(I-1
I1
I1
tp567
I0
s(I0
I0
I1
tp568
I0
s(I1
I0
I1
tp569
I0
s(I-1
I0
I1
tp570
I0
s(I0
I0
I0
tp571
F-0.0019000000000000883
s(I-1
I0
I0
tp572
I0
s(I0
I1
I0
tp573
I0
s(I1
I1
I1
tp574
I0
ssS'7777 7777     7    7     '
p575
(dp576
(I-1
I1
I0
tp577
F-0.0010000000000000009
s(I0
I1
I1
tp578
I0
s(I-1
I1
I1
tp579
F-0.001900000000000044
s(I1
I0
I0
tp580
F-0.0010000000000000009
s(I1
I1
I0
tp581
F-0.0010000000000000232
s(I0
I0
I1
tp582
I0
s(I1
I0
I1
tp583
I0
s(I-1
I0
I1
tp584
I0
s(I0
I0
I0
tp585
F-0.005217031000000121
s(I-1
I0
I0
tp586
I0
s(I0
I1
I0
tp587
I0
s(I1
I1
I1
tp588
I0
ssS'77       7  M            '
p589
(dp590
(I-1
I1
I0
tp591
F-0.0019000000000000839
s(I0
I1
I1
tp592
I0
s(I-1
I1
I1
tp593
I0
s(I1
I0
I0
tp594
I0
s(I1
I1
I0
tp595
I0
s(I0
I0
I1
tp596
I0
s(I1
I0
I1
tp597
I0
s(I-1
I0
I1
tp598
I0
s(I0
I0
I0
tp599
I0
s(I-1
I0
I0
tp600
I0
s(I0
I1
I0
tp601
I0
s(I1
I1
I1
tp602
I0
ssS'  7    777               '
p603
(dp604
(I-1
I1
I0
tp605
F-0.0071757046351901676
s(I0
I1
I1
tp606
F-0.0010000000000000009
s(I-1
I1
I1
tp607
F-0.007175704635190237
s(I1
I0
I0
tp608
F-0.0099914049554431419
s(I1
I1
I0
tp609
F-0.0046855900000001569
s(I0
I0
I1
tp610
F-0.0034390000000000601
s(I1
I0
I1
tp611
F-0.0090152290978166624
s(I-1
I0
I1
tp612
F-0.0074581341716711607
s(I0
I0
I0
tp613
F-0.0019000000000001639
s(I-1
I0
I0
tp614
F-0.0071757046351903324
s(I0
I1
I0
tp615
F-0.0046855900000000953
s(I1
I1
I1
tp616
F-0.0027100000000000405
ssS'        7777      $$'
p617
(dp618
(I-1
I1
I0
tp619
I0
s(I0
I1
I1
tp620
I0
s(I-1
I1
I1
tp621
I0
s(I1
I0
I0
tp622
I0
s(I1
I1
I0
tp623
I0
s(I0
I0
I1
tp624
I0
s(I1
I0
I1
tp625
I0
s(I-1
I0
I1
tp626
I0
s(I0
I0
I0
tp627
I0
s(I-1
I0
I0
tp628
I0
s(I0
I1
I0
tp629
I0
s(I1
I1
I1
tp630
F-0.0027100000000000206
ssS'   77      M             '
p631
(dp632
(I-1
I1
I0
tp633
F-0.0019000000000000017
s(I0
I1
I1
tp634
F-0.0046855900000001074
s(I-1
I1
I1
tp635
F-0.0010000000000000009
s(I1
I0
I0
tp636
F-0.003439000000000129
s(I1
I1
I0
tp637
F-0.0034390000000000033
s(I0
I0
I1
tp638
I0
s(I1
I0
I1
tp639
I0
s(I-1
I0
I1
tp640
F-0.0094766523669727945
s(I0
I0
I0
tp641
F-0.0019000000000000017
s(I-1
I0
I0
tp642
F-0.0027100000000000873
s(I0
I1
I0
tp643
F-0.004685590000000078
s(I1
I1
I1
tp644
I0
ssS'     7777                '
p645
(dp646
(I-1
I1
I0
tp647
F-0.0010000000000000009
s(I0
I1
I1
tp648
I0
s(I-1
I1
I1
tp649
I0
s(I1
I0
I0
tp650
F-0.0010000000000000009
s(I1
I1
I0
tp651
F-0.0010000000000000232
s(I0
I0
I1
tp652
I0
s(I1
I0
I1
tp653
F-0.0019000000000000839
s(I-1
I0
I1
tp654
I0
s(I0
I0
I0
tp655
F-0.0010000000000001564
s(I-1
I0
I0
tp656
F-0.0071757046351901502
s(I0
I1
I0
tp657
I0
s(I1
I1
I1
tp658
F-0.0019000000000000616
ssS'7                        '
p659
(dp660
(I-1
I1
I0
tp661
F-0.0010000000000000009
s(I0
I1
I1
tp662
I0
s(I-1
I1
I1
tp663
I0
s(I1
I0
I0
tp664
I0
s(I1
I1
I0
tp665
I0
s(I0
I0
I1
tp666
I0
s(I1
I0
I1
tp667
I0
s(I-1
I0
I1
tp668
I0
s(I0
I0
I0
tp669
I0
s(I-1
I0
I0
tp670
F-0.0010000000000000232
s(I0
I1
I0
tp671
I0
s(I1
I1
I1
tp672
I0
ssS'      7777M              '
p673
(dp674
(I-1
I1
I0
tp675
F-0.0099753496529507175
s(I0
I1
I1
tp676
F-0.001900000000000044
s(I-1
I1
I1
tp677
F-0.0056953279000002072
s(I1
I0
I0
tp678
F-0.0019000000000000017
s(I1
I1
I0
tp679
F-0.0077123207545040737
s(I0
I0
I1
tp680
F-0.0061257951100003394
s(I1
I0
I1
tp681
F-0.0034390000000000414
s(I-1
I0
I1
tp682
F-0.0040951000000000477
s(I0
I0
I0
tp683
F-0.0046855900000000762
s(I-1
I0
I0
tp684
F-0.0052170310000001574
s(I0
I1
I0
tp685
F-0.0052170310000000551
s(I1
I1
I1
tp686
I0
ssS'     7                   '
p687
(dp688
(I-1
I1
I0
tp689
F-0.0065132155990002627
s(I0
I1
I1
tp690
F-0.0065132155990001188
s(I-1
I1
I1
tp691
F-0.0052170310000000577
s(I1
I0
I0
tp692
F-0.007458134171671126
s(I1
I1
I0
tp693
F-0.0094185026299698667
s(I0
I0
I1
tp694
F-0.0086491482823272403
s(I1
I0
I1
tp695
F-0.0010000000000000232
s(I-1
I0
I1
tp696
F-0.0040951000000001483
s(I0
I0
I0
tp697
F-0.0099978152549949784
s(I-1
I0
I0
tp698
F-0.0074581341716711703
s(I0
I1
I0
tp699
F-0.0052170310000001332
s(I1
I1
I1
tp700
F-0.0056953279000001751
ssS'   77777    M            '
p701
(dp702
(I-1
I1
I0
tp703
F-0.0019000000000000616
s(I0
I1
I1
tp704
F-0.0056953279000001786
s(I-1
I1
I1
tp705
F-0.0093538918110774461
s(I1
I0
I0
tp706
F0.047391741046352909
s(I1
I1
I0
tp707
F0.046860037929847581
s(I0
I0
I1
tp708
F-0.0010000000000000009
s(I1
I0
I1
tp709
F-0.0019000000000000683
s(I-1
I0
I1
tp710
F-0.0061257951100001373
s(I0
I0
I0
tp711
F0.046849621198245386
s(I-1
I0
I0
tp712
F-0.0027100000000001229
s(I0
I1
I0
tp713
F0.041163026019954974
s(I1
I1
I1
tp714
I0
ssS'      777      '
p715
(dp716
(I-1
I1
I0
tp717
I0
s(I0
I1
I1
tp718
I0
s(I1
I1
I0
tp719
I0
s(I1
I0
I0
tp720
I0
s(I-1
I1
I1
tp721
I0
s(I0
I0
I1
tp722
I0
s(I1
I0
I1
tp723
I0
s(I-1
I0
I1
tp724
I0
s(I0
I0
I0
tp725
I0
s(I-1
I0
I0
tp726
I0
s(I0
I1
I0
tp727
I0
s(I1
I1
I1
tp728
I0
ssS'7       77 M             '
p729
(dp730
(I-1
I1
I0
tp731
F0.027344308432759517
s(I0
I1
I1
tp732
F-0.0040951000000000459
s(I-1
I1
I1
tp733
F-0.0027100000000000223
s(I1
I0
I0
tp734
F-0.0061257951100002457
s(I1
I1
I0
tp735
F-0.0099838269073010012
s(I0
I0
I1
tp736
F-0.0068618940391001358
s(I1
I0
I1
tp737
F-0.0083322818300335614
s(I-1
I0
I1
tp738
F-0.0052170310000001011
s(I0
I0
I0
tp739
F-0.003439000000000021
s(I-1
I0
I0
tp740
F-0.0019000000000000241
s(I0
I1
I0
tp741
F-0.004685590000000019
s(I1
I1
I1
tp742
F-0.0077123207545040052
ssS'       $            '
p743
(dp744
(I-1
I1
I0
tp745
I0
s(I0
I1
I1
tp746
I0
s(I-1
I1
I1
tp747
F-0.0019000000000000017
s(I1
I0
I0
tp748
F-0.0010000000000000675
s(I1
I1
I0
tp749
I0
s(I0
I0
I1
tp750
I0
s(I1
I0
I1
tp751
I0
s(I-1
I0
I1
tp752
I0
s(I0
I0
I0
tp753
I0
s(I-1
I0
I0
tp754
I0
s(I0
I1
I0
tp755
I0
s(I1
I1
I1
tp756
I0
ssS'    77  $$'
p757
(dp758
(I-1
I1
I0
tp759
I0
s(I0
I1
I1
tp760
I0
s(I-1
I1
I1
tp761
I0
s(I1
I0
I0
tp762
I0
s(I1
I1
I0
tp763
I0
s(I0
I0
I1
tp764
I0
s(I1
I0
I1
tp765
I0
s(I-1
I0
I1
tp766
I0
s(I0
I0
I0
tp767
F-0.0019000000000000017
s(I-1
I0
I0
tp768
I0
s(I0
I1
I0
tp769
I0
s(I1
I1
I1
tp770
I0
ssS' 7   '
p771
(dp772
(I-1
I1
I0
tp773
F-0.0019000000000000839
s(I0
I1
I1
tp774
I0
s(I1
I1
I0
tp775
I0
s(I1
I0
I0
tp776
I0
s(I-1
I1
I1
tp777
I0
s(I0
I0
I1
tp778
I0
s(I1
I0
I1
tp779
I0
s(I-1
I0
I1
tp780
I0
s(I0
I0
I0
tp781
I0
s(I-1
I0
I0
tp782
I0
s(I0
I1
I0
tp783
I0
s(I1
I1
I1
tp784
I0
ssS'7777777777M     7777     '
p785
(dp786
(I-1
I1
I0
tp787
F-0.0092023355692314526
s(I0
I1
I1
tp788
F-0.0099800332188900893
s(I-1
I1
I1
tp789
F0.041243343669544547
s(I1
I0
I0
tp790
F-0.0056953279000001838
s(I1
I1
I0
tp791
F-0.0046855900000001812
s(I0
I0
I1
tp792
F-0.0052170310000001123
s(I1
I0
I1
tp793
F-0.0074581341716710809
s(I-1
I0
I1
tp794
F-0.0034390000000000254
s(I0
I0
I0
tp795
F-0.0010000000000000009
s(I-1
I0
I0
tp796
F-0.0027100000000000891
s(I0
I1
I0
tp797
F-0.0040951000000003087
s(I1
I1
I1
tp798
F0.036091995382550465
ssS'7777      M              '
p799
(dp800
(I-1
I1
I0
tp801
F-0.0019000000000000017
s(I0
I1
I1
tp802
I0
s(I-1
I1
I1
tp803
I0
s(I1
I0
I0
tp804
I0
s(I1
I1
I0
tp805
I0
s(I0
I0
I1
tp806
I0
s(I1
I0
I1
tp807
I0
s(I-1
I0
I1
tp808
I0
s(I0
I0
I0
tp809
I0
s(I-1
I0
I0
tp810
I0
s(I0
I1
I0
tp811
I0
s(I1
I1
I1
tp812
I0
ssS'            M       '
p813
(dp814
(I-1
I1
I0
tp815
I0
s(I0
I1
I1
tp816
I0
s(I-1
I1
I1
tp817
I0
s(I1
I0
I0
tp818
I0
s(I1
I1
I0
tp819
I0
s(I0
I0
I1
tp820
I0
s(I1
I0
I1
tp821
I0
s(I-1
I0
I1
tp822
I0
s(I0
I0
I0
tp823
I0
s(I-1
I0
I0
tp824
I0
s(I0
I1
I0
tp825
I0
s(I1
I1
I1
tp826
I0
ssS'     77777  M            '
p827
(dp828
(I-1
I1
I0
tp829
F-0.010000000000000744
s(I0
I1
I1
tp830
F-0.0099999828384627325
s(I-1
I1
I1
tp831
F-0.009999973843107612
s(I1
I0
I0
tp832
F-0.0099999324844880777
s(I1
I1
I0
tp833
F-0.0099995951623400286
s(I0
I0
I1
tp834
F-0.0099987099299221564
s(I1
I0
I1
tp835
F-0.0099838269073008225
s(I-1
I0
I1
tp836
F-0.0099030226270214964
s(I0
I0
I0
tp837
F-0.0099030226270214496
s(I-1
I0
I0
tp838
F-0.0099999999975400929
s(I0
I1
I0
tp839
F-0.0099937342125179518
s(I1
I1
I1
tp840
F-0.0099753496529506082
ssS' 7777 77777 M     77     '
p841
(dp842
(I-1
I1
I0
tp843
I0
s(I0
I1
I1
tp844
I0
s(I-1
I1
I1
tp845
I0
s(I1
I0
I0
tp846
I0
s(I1
I1
I0
tp847
I0
s(I0
I0
I1
tp848
I0
s(I1
I0
I1
tp849
I0
s(I-1
I0
I1
tp850
I0
s(I0
I0
I0
tp851
I0
s(I-1
I0
I0
tp852
I0
s(I0
I1
I0
tp853
I0
s(I1
I1
I1
tp854
I0
ssS'     $    ?b   '
p855
(dp856
(I-1
I1
I0
tp857
I0
s(I0
I1
I1
tp858
I0
s(I1
I1
I0
tp859
I0
s(I1
I0
I0
tp860
I0
s(I-1
I1
I1
tp861
I0
s(I0
I0
I1
tp862
I0
s(I1
I0
I1
tp863
I0
s(I-1
I0
I1
tp864
I0
s(I0
I0
I0
tp865
I0
s(I-1
I0
I0
tp866
I0
s(I0
I1
I0
tp867
I0
s(I1
I1
I1
tp868
I0
ssS'               77777     '
p869
(dp870
(I-1
I1
I0
tp871
F-0.0019000000000000017
s(I0
I1
I1
tp872
I0
s(I-1
I1
I1
tp873
F-0.009929303495099016
s(I1
I0
I0
tp874
F-0.0077123207545042672
s(I1
I1
I0
tp875
F-0.0010000000000000009
s(I0
I0
I1
tp876
I0
s(I1
I0
I1
tp877
F-0.0019000000000001639
s(I-1
I0
I1
tp878
F-0.0010000000000000009
s(I0
I0
I0
tp879
F-0.0019000000000001572
s(I-1
I0
I0
tp880
F-0.0052170310000001618
s(I0
I1
I0
tp881
F-0.0046855900000001647
s(I1
I1
I1
tp882
F-0.0010000000000000009
ssS'  777      M             '
p883
(dp884
(I-1
I1
I0
tp885
F-0.0010000000000000232
s(I0
I1
I1
tp886
F-0.0040951000000000702
s(I-1
I1
I1
tp887
I0
s(I1
I0
I0
tp888
I0
s(I1
I1
I0
tp889
I0
s(I0
I0
I1
tp890
F-0.0010000000000000675
s(I1
I0
I1
tp891
F-0.0010000000000000232
s(I-1
I0
I1
tp892
I0
s(I0
I0
I0
tp893
F-0.0019000000000000616
s(I-1
I0
I0
tp894
I0
s(I0
I1
I0
tp895
I0
s(I1
I1
I1
tp896
I0
ssS'      777    $$'
p897
(dp898
(I-1
I1
I0
tp899
F0.046937048521716165
s(I0
I1
I1
tp900
I0
s(I1
I1
I0
tp901
I0
s(I1
I0
I0
tp902
I0
s(I-1
I1
I1
tp903
I0
s(I0
I0
I1
tp904
I0
s(I1
I0
I1
tp905
I0
s(I-1
I0
I1
tp906
I0
s(I0
I0
I0
tp907
I0
s(I-1
I0
I0
tp908
I0
s(I0
I1
I0
tp909
I0
s(I1
I1
I1
tp910
I0
ssS'7777777777     77        '
p911
(dp912
(I-1
I1
I0
tp913
F-0.0019000000000000839
s(I0
I1
I1
tp914
F-0.0010000000000000009
s(I-1
I1
I1
tp915
I0
s(I1
I0
I0
tp916
F-0.0019000000000000883
s(I1
I1
I0
tp917
F-0.0010000000000000009
s(I0
I0
I1
tp918
I0
s(I1
I0
I1
tp919
F-0.0010000000000000009
s(I-1
I0
I1
tp920
F-0.0010000000000000009
s(I0
I0
I0
tp921
I0
s(I-1
I0
I0
tp922
I0
s(I0
I1
I0
tp923
I0
s(I1
I1
I1
tp924
I0
ssS'7777777777     7777      '
p925
(dp926
(I-1
I1
I0
tp927
F-0.0010000000000000009
s(I0
I1
I1
tp928
I0
s(I-1
I1
I1
tp929
I0
s(I1
I0
I0
tp930
I0
s(I1
I1
I0
tp931
I0
s(I0
I0
I1
tp932
I0
s(I1
I0
I1
tp933
I0
s(I-1
I0
I1
tp934
I0
s(I0
I0
I0
tp935
I0
s(I-1
I0
I0
tp936
I0
s(I0
I1
I0
tp937
F-0.0010000000000000232
s(I1
I1
I1
tp938
I0
ssS'      $$            '
p939
(dp940
(I-1
I1
I0
tp941
I0
s(I0
I1
I1
tp942
I0
s(I1
I1
I0
tp943
I0
s(I1
I0
I0
tp944
I0
s(I-1
I1
I1
tp945
I0
s(I0
I0
I1
tp946
I0
s(I1
I0
I1
tp947
F-0.0019000000000000241
s(I-1
I0
I1
tp948
I0
s(I0
I0
I0
tp949
I0
s(I-1
I0
I0
tp950
I0
s(I0
I1
I0
tp951
I0
s(I1
I1
I1
tp952
I0
ssS'         M          '
p953
(dp954
(I-1
I1
I0
tp955
F-0.010000000000000363
s(I0
I1
I1
tp956
F-0.0083322818300333897
s(I-1
I1
I1
tp957
F-0.0099800332188899228
s(I1
I0
I0
tp958
F-0.0084990536470301407
s(I1
I1
I0
tp959
F-0.0097496844495009224
s(I0
I0
I1
tp960
F-0.0099582544208209559
s(I1
I0
I1
tp961
F-0.0094766523669728691
s(I-1
I0
I1
tp962
F-0.0089058101086850455
s(I0
I0
I0
tp963
F-0.009015229097816442
s(I-1
I0
I0
tp964
F-0.0099990595389131548
s(I0
I1
I0
tp965
F-0.0092023355692314249
s(I1
I1
I1
tp966
F-0.0087842334540944138
ssS'    7777       $    '
p967
(dp968
(I-1
I1
I0
tp969
F-0.0010000000000000675
s(I0
I1
I1
tp970
F-0.0010000000000000009
s(I-1
I1
I1
tp971
F-0.0027100000000000622
s(I1
I0
I0
tp972
F-0.0010000000000000232
s(I1
I1
I0
tp973
I0
s(I0
I0
I1
tp974
I0
s(I1
I0
I1
tp975
I0
s(I-1
I0
I1
tp976
I0
s(I0
I0
I0
tp977
I0
s(I-1
I0
I0
tp978
F-0.0010000000000000009
s(I0
I1
I0
tp979
I0
s(I1
I1
I1
tp980
I0
ssS' 77777     M 77          '
p981
(dp982
(I-1
I1
I0
tp983
I0
s(I0
I1
I1
tp984
F-0.005695327900000104
s(I-1
I1
I1
tp985
F-0.0010000000000000675
s(I1
I0
I0
tp986
F-0.0010000000000000232
s(I1
I1
I0
tp987
F-0.0010000000000000675
s(I0
I0
I1
tp988
F-0.0077123207545041171
s(I1
I0
I1
tp989
F0.046873885067872663
s(I-1
I0
I1
tp990
F-0.0027100000000000891
s(I0
I0
I0
tp991
F-0.0010000000000000009
s(I-1
I0
I0
tp992
I0
s(I0
I1
I0
tp993
F-0.0010000000000000009
s(I1
I1
I1
tp994
F-0.0010000000000000675
ssS'      bb  '
p995
(dp996
(I-1
I1
I0
tp997
I0
s(I0
I1
I1
tp998
I0
s(I1
I1
I0
tp999
I0
s(I1
I0
I0
tp1000
I0
s(I-1
I1
I1
tp1001
I0
s(I0
I0
I1
tp1002
I0
s(I1
I0
I1
tp1003
I0
s(I-1
I0
I1
tp1004
I0
s(I0
I0
I0
tp1005
I0
s(I-1
I0
I0
tp1006
I0
s(I0
I1
I0
tp1007
I0
s(I1
I1
I1
tp1008
I0
ssS'  77      '
p1009
(dp1010
(I-1
I1
I0
tp1011
I0
s(I0
I1
I1
tp1012
I0
s(I1
I1
I0
tp1013
I0
s(I1
I0
I0
tp1014
I0
s(I-1
I1
I1
tp1015
F-0.0019000000000002171
s(I0
I0
I1
tp1016
I0
s(I1
I0
I1
tp1017
I0
s(I-1
I0
I1
tp1018
I0
s(I0
I0
I0
tp1019
I0
s(I-1
I0
I0
tp1020
I0
s(I0
I1
I0
tp1021
I0
s(I1
I1
I1
tp1022
I0
ssS'                         '
p1023
(dp1024
(I-1
I1
I0
tp1025
F-0.0099999999996309378
s(I0
I1
I1
tp1026
F-0.0096566316179710864
s(I-1
I1
I1
tp1027
F-0.0093538918110776647
s(I1
I0
I0
tp1028
F-0.0098802748481746083
s(I1
I1
I0
tp1029
F-0.0097496844495009467
s(I0
I0
I1
tp1030
F-0.0099624289787389499
s(I1
I0
I1
tp1031
F-0.0089058101086851357
s(I-1
I0
I1
tp1032
F-0.0081469798111484387
s(I0
I0
I0
tp1033
F-0.0092023355692315498
s(I-1
I0
I0
tp1034
F-0.007712320754504098
s(I0
I1
I0
tp1035
F-0.0068618940391002078
s(I1
I1
I1
tp1036
F-0.0061257951100001564
ssS'          77777          '
p1037
(dp1038
(I-1
I1
I0
tp1039
I0
s(I0
I1
I1
tp1040
F-0.0010000000000000009
s(I-1
I1
I1
tp1041
F-0.0019000000000000017
s(I1
I0
I0
tp1042
I0
s(I1
I1
I0
tp1043
I0
s(I0
I0
I1
tp1044
F-0.0010000000000000009
s(I1
I0
I1
tp1045
F-0.0027100000000001429
s(I-1
I0
I1
tp1046
F-0.0019000000000001281
s(I0
I0
I0
tp1047
I0
s(I-1
I0
I0
tp1048
F-0.0019000000000000839
s(I0
I1
I0
tp1049
I0
s(I1
I1
I1
tp1050
I0
ssS'     777  M              '
p1051
(dp1052
(I-1
I1
I0
tp1053
I0
s(I0
I1
I1
tp1054
I0
s(I-1
I1
I1
tp1055
I0
s(I1
I0
I0
tp1056
I0
s(I1
I1
I0
tp1057
I0
s(I0
I0
I1
tp1058
I0
s(I1
I0
I1
tp1059
I0
s(I-1
I0
I1
tp1060
I0
s(I0
I0
I0
tp1061
I0
s(I-1
I0
I0
tp1062
I0
s(I0
I1
I0
tp1063
I0
s(I1
I1
I1
tp1064
I0
ssS'          77777         $'
p1065
(dp1066
(I-1
I1
I0
tp1067
F-0.0034390000000001433
s(I0
I1
I1
tp1068
I0
s(I-1
I1
I1
tp1069
F0.046937048521716165
s(I1
I0
I0
tp1070
F-0.0010000000000000009
s(I1
I1
I0
tp1071
I0
s(I0
I0
I1
tp1072
I0
s(I1
I0
I1
tp1073
I0
s(I-1
I0
I1
tp1074
I0
s(I0
I0
I0
tp1075
I0
s(I-1
I0
I0
tp1076
I0
s(I0
I1
I0
tp1077
I0
s(I1
I1
I1
tp1078
I0
ssS'     77777               '
p1079
(dp1080
(I-1
I1
I0
tp1081
F-0.0079410886790538815
s(I0
I1
I1
tp1082
F-0.0010000000000000675
s(I-1
I1
I1
tp1083
F-0.0010000000000001564
s(I1
I0
I0
tp1084
F-0.0019000000000002082
s(I1
I1
I0
tp1085
I0
s(I0
I0
I1
tp1086
F-0.0010000000000001564
s(I1
I0
I1
tp1087
F-0.0010000000000000009
s(I-1
I0
I1
tp1088
F-0.0019000000000001416
s(I0
I0
I0
tp1089
F-0.0052170310000001852
s(I-1
I0
I0
tp1090
F-0.0010000000000000009
s(I0
I1
I0
tp1091
I0
s(I1
I1
I1
tp1092
F-0.0019000000000001572
ssS'77  $$  ?b'
p1093
(dp1094
(I-1
I1
I0
tp1095
I0
s(I0
I1
I1
tp1096
I0
s(I1
I1
I0
tp1097
I0
s(I1
I0
I0
tp1098
F-0.0010000000000000009
s(I-1
I1
I1
tp1099
I0
s(I0
I0
I1
tp1100
I0
s(I1
I0
I1
tp1101
I0
s(I-1
I0
I1
tp1102
I0
s(I0
I0
I0
tp1103
I0
s(I-1
I0
I0
tp1104
I0
s(I0
I1
I0
tp1105
I0
s(I1
I1
I1
tp1106
I0
ssS' $ b '
p1107
(dp1108
(I-1
I1
I0
tp1109
I0
s(I0
I1
I1
tp1110
I0
s(I-1
I1
I1
tp1111
I0
s(I1
I0
I0
tp1112
I0
s(I1
I1
I0
tp1113
F-0.0019000000000000017
s(I0
I0
I1
tp1114
I0
s(I1
I0
I1
tp1115
I0
s(I-1
I0
I1
tp1116
F-0.0010000000000000009
s(I0
I0
I0
tp1117
I0
s(I-1
I0
I0
tp1118
I0
s(I0
I1
I0
tp1119
I0
s(I1
I1
I1
tp1120
I0
ssS'   777   $$$   '
p1121
(dp1122
(I-1
I1
I0
tp1123
F-0.0087842334540945768
s(I0
I1
I1
tp1124
F-0.001900000000000044
s(I-1
I1
I1
tp1125
F-0.0027100000000000206
s(I1
I0
I0
tp1126
I0
s(I1
I1
I0
tp1127
F-0.0019000000000000241
s(I0
I0
I1
tp1128
I0
s(I1
I0
I1
tp1129
F-0.0034390000000000414
s(I-1
I0
I1
tp1130
F-0.0010000000000000675
s(I0
I0
I0
tp1131
F-0.0027100000000000405
s(I-1
I0
I0
tp1132
F-0.0040951000000002818
s(I0
I1
I0
tp1133
F-0.0010000000000000009
s(I1
I1
I1
tp1134
I0
ssS'77   77     7    777     '
p1135
(dp1136
(I-1
I1
I0
tp1137
F-0.0019000000000000883
s(I0
I1
I1
tp1138
I0
s(I-1
I1
I1
tp1139
F-0.0061257951100000532
s(I1
I0
I0
tp1140
I0
s(I1
I1
I0
tp1141
F-0.0010000000000000232
s(I0
I0
I1
tp1142
I0
s(I1
I0
I1
tp1143
I0
s(I-1
I0
I1
tp1144
I0
s(I0
I0
I0
tp1145
F-0.0010000000000000009
s(I-1
I0
I0
tp1146
I0
s(I0
I1
I0
tp1147
I0
s(I1
I1
I1
tp1148
I0
ssS'    7777            '
p1149
(dp1150
(I-1
I1
I0
tp1151
F-0.0027100000000001472
s(I0
I1
I1
tp1152
I0
s(I1
I1
I0
tp1153
I0
s(I1
I0
I0
tp1154
F-0.0010000000000000675
s(I-1
I1
I1
tp1155
F-0.0019000000000001281
s(I0
I0
I1
tp1156
F-0.0010000000000000675
s(I1
I0
I1
tp1157
I0
s(I-1
I0
I1
tp1158
I0
s(I0
I0
I0
tp1159
F-0.0010000000000001564
s(I-1
I0
I0
tp1160
I0
s(I0
I1
I0
tp1161
I0
s(I1
I1
I1
tp1162
I0
ssS'           M             '
p1163
(dp1164
(I-1
I1
I0
tp1165
F-0.0019000000000000017
s(I0
I1
I1
tp1166
I0
s(I-1
I1
I1
tp1167
F-0.0019000000000000616
s(I1
I0
I0
tp1168
F-0.0019000000000000839
s(I1
I1
I0
tp1169
F-0.0010000000000000675
s(I0
I0
I1
tp1170
I0
s(I1
I0
I1
tp1171
F-0.0061257951100001659
s(I-1
I0
I1
tp1172
I0
s(I0
I0
I0
tp1173
I0
s(I-1
I0
I0
tp1174
I0
s(I0
I1
I0
tp1175
F-0.0010000000000000675
s(I1
I1
I1
tp1176
F-0.0010000000000000232
ssS'               '
p1177
(dp1178
(I-1
I1
I0
tp1179
I0
s(I0
I1
I1
tp1180
I0
s(I1
I1
I0
tp1181
I0
s(I1
I0
I0
tp1182
I0
s(I-1
I1
I1
tp1183
I0
s(I0
I0
I1
tp1184
I0
s(I1
I0
I1
tp1185
I0
s(I-1
I0
I1
tp1186
I0
s(I0
I0
I0
tp1187
I0
s(I-1
I0
I0
tp1188
I0
s(I0
I1
I0
tp1189
I0
s(I1
I1
I1
tp1190
I0
ssS'         M      '
p1191
(dp1192
(I-1
I1
I0
tp1193
I0
s(I0
I1
I1
tp1194
I0
s(I-1
I1
I1
tp1195
I0
s(I1
I0
I0
tp1196
I0
s(I1
I1
I0
tp1197
I0
s(I0
I0
I1
tp1198
I0
s(I1
I0
I1
tp1199
I0
s(I-1
I0
I1
tp1200
I0
s(I0
I0
I0
tp1201
I0
s(I-1
I0
I0
tp1202
I0
s(I0
I1
I0
tp1203
I0
s(I1
I1
I1
tp1204
I0
ssS'    $$         '
p1205
(dp1206
(I-1
I1
I0
tp1207
I0
s(I0
I1
I1
tp1208
I0
s(I1
I1
I0
tp1209
I0
s(I1
I0
I0
tp1210
I0
s(I-1
I1
I1
tp1211
I0
s(I0
I0
I1
tp1212
I0
s(I1
I0
I1
tp1213
I0
s(I-1
I0
I1
tp1214
I0
s(I0
I0
I0
tp1215
I0
s(I-1
I0
I0
tp1216
I0
s(I0
I1
I0
tp1217
I0
s(I1
I1
I1
tp1218
I0
ssS'77                       '
p1219
(dp1220
(I-1
I1
I0
tp1221
I0
s(I0
I1
I1
tp1222
I0
s(I1
I1
I0
tp1223
I0
s(I1
I0
I0
tp1224
I0
s(I-1
I1
I1
tp1225
I0
s(I0
I0
I1
tp1226
I0
s(I1
I0
I1
tp1227
I0
s(I-1
I0
I1
tp1228
I0
s(I0
I0
I0
tp1229
I0
s(I-1
I0
I0
tp1230
I0
s(I0
I1
I0
tp1231
I0
s(I1
I1
I1
tp1232
I0
ssS'    7       M            '
p1233
(dp1234
(I-1
I1
I0
tp1235
F-0.0010000000000000009
s(I0
I1
I1
tp1236
F-0.0010000000000000009
s(I-1
I1
I1
tp1237
I0
s(I1
I0
I0
tp1238
F-0.0010000000000000009
s(I1
I1
I0
tp1239
F-0.0010000000000000009
s(I0
I0
I1
tp1240
I0
s(I1
I0
I1
tp1241
I0
s(I-1
I0
I1
tp1242
I0
s(I0
I0
I0
tp1243
I0
s(I-1
I0
I0
tp1244
F-0.0010000000000000232
s(I0
I1
I0
tp1245
F-0.0010000000000000232
s(I1
I1
I1
tp1246
F-0.0046855900000000632
ssS'7777777777 M     777     '
p1247
(dp1248
(I-1
I1
I0
tp1249
F-0.0079410886790537271
s(I0
I1
I1
tp1250
I0
s(I-1
I1
I1
tp1251
F-0.0010000000000000232
s(I1
I0
I0
tp1252
I0
s(I1
I1
I0
tp1253
F-0.0034390000000000878
s(I0
I0
I1
tp1254
I0
s(I1
I0
I1
tp1255
I0
s(I-1
I0
I1
tp1256
I0
s(I0
I0
I0
tp1257
F-0.0010000000000000675
s(I-1
I0
I0
tp1258
F-0.0010000000000000009
s(I0
I1
I0
tp1259
F-0.0010000000000000232
s(I1
I1
I1
tp1260
I0
ssS'77777     M7777          '
p1261
(dp1262
(I-1
I1
I0
tp1263
F-0.0019000000000000219
s(I0
I1
I1
tp1264
F-0.0027100000000000847
s(I-1
I1
I1
tp1265
F0.041219690888274971
s(I1
I0
I0
tp1266
F0.047336533572825315
s(I1
I1
I0
tp1267
F0.046897335317707643
s(I0
I0
I1
tp1268
I0
s(I1
I0
I1
tp1269
F0.046870503675959116
s(I-1
I0
I1
tp1270
I0
s(I0
I0
I0
tp1271
F0.041234615705976474
s(I-1
I0
I0
tp1272
F-0.0019000000000000219
s(I0
I1
I0
tp1273
F-0.006125795110000159
s(I1
I1
I1
tp1274
F0.036119009302590051
ssS' $ ? '
p1275
(dp1276
(I-1
I1
I0
tp1277
I0
s(I0
I1
I1
tp1278
I0
s(I1
I1
I0
tp1279
I0
s(I1
I0
I0
tp1280
I0
s(I-1
I1
I1
tp1281
I0
s(I0
I0
I1
tp1282
I0
s(I1
I0
I1
tp1283
I0
s(I-1
I0
I1
tp1284
I0
s(I0
I0
I0
tp1285
I0
s(I-1
I0
I0
tp1286
I0
s(I0
I1
I0
tp1287
I0
s(I1
I1
I1
tp1288
I0
ssS'  77777     M 7          '
p1289
(dp1290
(I-1
I1
I0
tp1291
F0.041234615705976453
s(I0
I1
I1
tp1292
I0
s(I-1
I1
I1
tp1293
F0.046927350784418342
s(I1
I0
I0
tp1294
F-0.0010000000000001564
s(I1
I1
I0
tp1295
F-0.0010000000000000675
s(I0
I0
I1
tp1296
F0.046910767653638989
s(I1
I0
I1
tp1297
F-0.0019000000000000017
s(I-1
I0
I1
tp1298
I0
s(I0
I0
I0
tp1299
I0
s(I-1
I0
I0
tp1300
I0
s(I0
I1
I0
tp1301
I0
s(I1
I1
I1
tp1302
F-0.0027100000000000223
ssS'     777                 '
p1303
(dp1304
(I-1
I1
I0
tp1305
F-0.0019000000000000839
s(I0
I1
I1
tp1306
F-0.0052170310000000733
s(I-1
I1
I1
tp1307
F-0.0090152290978165669
s(I1
I0
I0
tp1308
F-0.0099992382265196474
s(I1
I1
I0
tp1309
F-0.0040951000000000199
s(I0
I0
I1
tp1310
F-0.0040951000000000572
s(I1
I0
I1
tp1311
F-0.005217031000000134
s(I-1
I0
I1
tp1312
F-0.0090152290978167612
s(I0
I0
I0
tp1313
F-0.0079410886790536976
s(I-1
I0
I0
tp1314
F-0.0068618940391001653
s(I0
I1
I0
tp1315
F-0.0027100000000000206
s(I1
I1
I1
tp1316
F-0.0019000000000001572
ssS'77777     7777           '
p1317
(dp1318
(I-1
I1
I0
tp1319
F-0.0010000000000000009
s(I0
I1
I1
tp1320
F-0.0019000000000000241
s(I-1
I1
I1
tp1321
I0
s(I1
I0
I0
tp1322
I0
s(I1
I1
I0
tp1323
I0
s(I0
I0
I1
tp1324
I0
s(I1
I0
I1
tp1325
I0
s(I-1
I0
I1
tp1326
I0
s(I0
I0
I0
tp1327
I0
s(I-1
I0
I0
tp1328
I0
s(I0
I1
I0
tp1329
I0
s(I1
I1
I1
tp1330
I0
ssS'        7777        '
p1331
(dp1332
(I-1
I1
I0
tp1333
I0
s(I0
I1
I1
tp1334
I0
s(I1
I1
I0
tp1335
I0
s(I1
I0
I0
tp1336
I0
s(I-1
I1
I1
tp1337
I0
s(I0
I0
I1
tp1338
I0
s(I1
I0
I1
tp1339
I0
s(I-1
I0
I1
tp1340
I0
s(I0
I0
I0
tp1341
I0
s(I-1
I0
I0
tp1342
I0
s(I0
I1
I0
tp1343
I0
s(I1
I1
I1
tp1344
I0
ssS'7777777777M      777     '
p1345
(dp1346
(I-1
I1
I0
tp1347
F-0.0019000000000000219
s(I0
I1
I1
tp1348
I0
s(I-1
I1
I1
tp1349
I0
s(I1
I0
I0
tp1350
F-0.0010000000000000009
s(I1
I1
I0
tp1351
F-0.0027100000000000431
s(I0
I0
I1
tp1352
I0
s(I1
I0
I1
tp1353
I0
s(I-1
I0
I1
tp1354
I0
s(I0
I0
I0
tp1355
I0
s(I-1
I0
I0
tp1356
F-0.0010000000000000009
s(I0
I1
I0
tp1357
I0
s(I1
I1
I1
tp1358
I0
ssS'   7    77               '
p1359
(dp1360
(I-1
I1
I0
tp1361
F0.046860037929847609
s(I0
I1
I1
tp1362
F-0.0010000000000000009
s(I-1
I1
I1
tp1363
I0
s(I1
I0
I0
tp1364
F-0.0034390000000000974
s(I1
I1
I0
tp1365
F-0.0010000000000000009
s(I0
I0
I1
tp1366
F-0.0019000000000000219
s(I1
I0
I1
tp1367
I0
s(I-1
I0
I1
tp1368
I0
s(I0
I0
I0
tp1369
F-0.0010000000000000675
s(I-1
I0
I0
tp1370
F-0.0027100000000000249
s(I0
I1
I0
tp1371
F-0.0052170310000001687
s(I1
I1
I1
tp1372
F-0.0010000000000000232
ssS'77777      M777          '
p1373
(dp1374
(I-1
I1
I0
tp1375
I0
s(I0
I1
I1
tp1376
I0
s(I-1
I1
I1
tp1377
I0
s(I1
I0
I0
tp1378
I0
s(I1
I1
I0
tp1379
I0
s(I0
I0
I1
tp1380
I0
s(I1
I0
I1
tp1381
I0
s(I-1
I0
I1
tp1382
I0
s(I0
I0
I0
tp1383
I0
s(I-1
I0
I0
tp1384
I0
s(I0
I1
I0
tp1385
I0
s(I1
I1
I1
tp1386
I0
ssS'  $$  bb  '
p1387
(dp1388
(I-1
I1
I0
tp1389
I0
s(I0
I1
I1
tp1390
I0
s(I-1
I1
I1
tp1391
I0
s(I1
I0
I0
tp1392
I0
s(I1
I1
I0
tp1393
I0
s(I0
I0
I1
tp1394
I0
s(I1
I0
I1
tp1395
I0
s(I-1
I0
I1
tp1396
I0
s(I0
I0
I0
tp1397
I0
s(I-1
I0
I0
tp1398
I0
s(I0
I1
I0
tp1399
I0
s(I1
I1
I1
tp1400
I0
ssS'       777M              '
p1401
(dp1402
(I-1
I1
I0
tp1403
F-0.0040951000000001344
s(I0
I1
I1
tp1404
F-0.0010000000000000009
s(I-1
I1
I1
tp1405
I0
s(I1
I0
I0
tp1406
I0
s(I1
I1
I0
tp1407
I0
s(I0
I0
I1
tp1408
I0
s(I1
I0
I1
tp1409
I0
s(I-1
I0
I1
tp1410
F-0.0027100000000000448
s(I0
I0
I0
tp1411
I0
s(I-1
I0
I0
tp1412
I0
s(I0
I1
I0
tp1413
F-0.0010000000000000232
s(I1
I1
I1
tp1414
I0
ssS'    7    7               '
p1415
(dp1416
(I-1
I1
I0
tp1417
F-0.0099943607912662009
s(I0
I1
I1
tp1418
F-0.0052170310000000733
s(I-1
I1
I1
tp1419
F-0.001900000000000044
s(I1
I0
I0
tp1420
F-0.0019000000000000683
s(I1
I1
I0
tp1421
F-0.0086491482823271848
s(I0
I0
I1
tp1422
F-0.0068618940391001436
s(I1
I0
I1
tp1423
F-0.0056953279000000528
s(I-1
I0
I1
tp1424
F-0.0052170310000000794
s(I0
I0
I0
tp1425
F-0.0094766523669727563
s(I-1
I0
I0
tp1426
F-0.004685590000000058
s(I0
I1
I0
tp1427
F-0.0074581341716713177
s(I1
I1
I1
tp1428
F-0.0074581341716711764
ssS'   $  ?b  '
p1429
(dp1430
(I-1
I1
I0
tp1431
I0
s(I0
I1
I1
tp1432
I0
s(I1
I1
I0
tp1433
I0
s(I1
I0
I0
tp1434
I0
s(I-1
I1
I1
tp1435
I0
s(I0
I0
I1
tp1436
I0
s(I1
I0
I1
tp1437
I0
s(I-1
I0
I1
tp1438
I0
s(I0
I0
I0
tp1439
I0
s(I-1
I0
I0
tp1440
I0
s(I0
I1
I0
tp1441
I0
s(I1
I1
I1
tp1442
I0
ssS'          M              '
p1443
(dp1444
(I-1
I1
I0
tp1445
F-0.0052170310000000863
s(I0
I1
I1
tp1446
F-0.0010000000000000232
s(I-1
I1
I1
tp1447
F-0.0010000000000000009
s(I1
I0
I0
tp1448
F-0.0010000000000000009
s(I1
I1
I0
tp1449
F-0.0061257951100000506
s(I0
I0
I1
tp1450
I0
s(I1
I0
I1
tp1451
F-0.0019000000000000883
s(I-1
I0
I1
tp1452
F-0.0034390000000001117
s(I0
I0
I0
tp1453
I0
s(I-1
I0
I0
tp1454
F-0.0089058101086849969
s(I0
I1
I0
tp1455
F-0.0010000000000000009
s(I1
I1
I1
tp1456
F-0.0010000000000001564
ssS'  $$  ?b  '
p1457
(dp1458
(I-1
I1
I0
tp1459
I0
s(I0
I1
I1
tp1460
I0
s(I-1
I1
I1
tp1461
I0
s(I1
I0
I0
tp1462
I0
s(I1
I1
I0
tp1463
I0
s(I0
I0
I1
tp1464
I0
s(I1
I0
I1
tp1465
I0
s(I-1
I0
I1
tp1466
I0
s(I0
I0
I0
tp1467
I0
s(I-1
I0
I0
tp1468
I0
s(I0
I1
I0
tp1469
I0
s(I1
I1
I1
tp1470
I0
ssS'    7777     $$$    '
p1471
(dp1472
(I-1
I1
I0
tp1473
I0
s(I0
I1
I1
tp1474
F-0.0019000000000001281
s(I-1
I1
I1
tp1475
I0
s(I1
I0
I0
tp1476
I0
s(I1
I1
I0
tp1477
F-0.0010000000000000009
s(I0
I0
I1
tp1478
I0
s(I1
I0
I1
tp1479
I0
s(I-1
I0
I1
tp1480
I0
s(I0
I0
I0
tp1481
I0
s(I-1
I0
I0
tp1482
I0
s(I0
I1
I0
tp1483
I0
s(I1
I1
I1
tp1484
I0
ssS'  77777    M  7          '
p1485
(dp1486
(I-1
I1
I0
tp1487
F-0.0034390000000002292
s(I0
I1
I1
tp1488
F-0.0010000000000000009
s(I-1
I1
I1
tp1489
I0
s(I1
I0
I0
tp1490
F-0.0027100000000000622
s(I1
I1
I0
tp1491
F-0.0019000000000000241
s(I0
I0
I1
tp1492
I0
s(I1
I0
I1
tp1493
I0
s(I-1
I0
I1
tp1494
I0
s(I0
I0
I0
tp1495
I0
s(I-1
I0
I0
tp1496
I0
s(I0
I1
I0
tp1497
I0
s(I1
I1
I1
tp1498
I0
ssS'    7777      $$    '
p1499
(dp1500
(I-1
I1
I0
tp1501
F0.041243343669544602
s(I0
I1
I1
tp1502
F-0.0065132155990002705
s(I-1
I1
I1
tp1503
I0
s(I1
I0
I0
tp1504
F-0.0046855900000000268
s(I1
I1
I0
tp1505
F-0.0010000000000000675
s(I0
I0
I1
tp1506
F-0.0046855900000001179
s(I1
I0
I1
tp1507
F-0.0010000000000000675
s(I-1
I0
I1
tp1508
F-0.0052170310000001184
s(I0
I0
I0
tp1509
F-0.0092821020123082746
s(I-1
I0
I0
tp1510
I0
s(I0
I1
I0
tp1511
F-0.0034390000000000033
s(I1
I1
I1
tp1512
I0
ssS'         $               '
p1513
(dp1514
(I-1
I1
I0
tp1515
I0
s(I0
I1
I1
tp1516
I0
s(I-1
I1
I1
tp1517
I0
s(I1
I0
I0
tp1518
I0
s(I1
I1
I0
tp1519
F-0.0010000000000000009
s(I0
I0
I1
tp1520
I0
s(I1
I0
I1
tp1521
F-0.0027100000000000891
s(I-1
I0
I1
tp1522
I0
s(I0
I0
I0
tp1523
I0
s(I-1
I0
I0
tp1524
I0
s(I0
I1
I0
tp1525
I0
s(I1
I1
I1
tp1526
F-0.0010000000000000009
ssS'            M            '
p1527
(dp1528
(I-1
I1
I0
tp1529
F-0.0099999392360391164
s(I0
I1
I1
tp1530
F-0.010000000000000821
s(I-1
I1
I1
tp1531
F-0.0099943607912664299
s(I1
I0
I0
tp1532
F-0.0099999999999388495
s(I1
I1
I0
tp1533
F-0.0099999601327653998
s(I0
I0
I1
tp1534
F-0.0099999453124355129
s(I1
I0
I1
tp1535
F-0.010000000000000243
s(I-1
I0
I1
tp1536
F-0.009999999613378106
s(I0
I0
I0
tp1537
F-0.0099995951623399852
s(I-1
I0
I0
tp1538
F-0.0099994446671328764
s(I0
I1
I0
tp1539
F-0.0099999960739909424
s(I1
I1
I1
tp1540
F-0.0099999999836109261
ssS'     77                  '
p1541
(dp1542
(I-1
I1
I0
tp1543
F-0.0092023355692314405
s(I0
I1
I1
tp1544
F-0.0010000000000000675
s(I-1
I1
I1
tp1545
F-0.0019000000000000616
s(I1
I0
I0
tp1546
I0
s(I1
I1
I0
tp1547
F-0.0019000000000000219
s(I0
I0
I1
tp1548
F-0.0040951000000000798
s(I1
I0
I1
tp1549
F-0.0010000000000000675
s(I-1
I0
I1
tp1550
F-0.0010000000000000675
s(I0
I0
I0
tp1551
F-0.0046855900000000658
s(I-1
I0
I0
tp1552
F-0.0010000000000000232
s(I0
I1
I0
tp1553
F-0.0040951000000000346
s(I1
I1
I1
tp1554
I0
ssS'            7777    '
p1555
(dp1556
(I-1
I1
I0
tp1557
F-0.0098175199636861762
s(I0
I1
I1
tp1558
F-0.0040951000000001561
s(I-1
I1
I1
tp1559
F-0.0046855900000000797
s(I1
I0
I0
tp1560
F-0.0019000000000000017
s(I1
I1
I0
tp1561
F-0.0079410886790535918
s(I0
I0
I1
tp1562
F-0.002710000000000116
s(I1
I0
I1
tp1563
F-0.0052170310000002719
s(I-1
I0
I1
tp1564
F-0.0027100000000000448
s(I0
I0
I0
tp1565
F-0.0052170310000001175
s(I-1
I0
I0
tp1566
F-0.002710000000000103
s(I0
I1
I0
tp1567
F-0.0010000000000000009
s(I1
I1
I1
tp1568
F-0.0040951000000000737
ssS'7777777777M    77        '
p1569
(dp1570
(I-1
I1
I0
tp1571
I0
s(I0
I1
I1
tp1572
I0
s(I-1
I1
I1
tp1573
I0
s(I1
I0
I0
tp1574
I0
s(I1
I1
I0
tp1575
I0
s(I0
I0
I1
tp1576
I0
s(I1
I0
I1
tp1577
I0
s(I-1
I0
I1
tp1578
I0
s(I0
I0
I0
tp1579
I0
s(I-1
I0
I0
tp1580
I0
s(I0
I1
I0
tp1581
I0
s(I1
I1
I1
tp1582
I0
ssS'7777777777M    7777      '
p1583
(dp1584
(I-1
I1
I0
tp1585
I0
s(I0
I1
I1
tp1586
F-0.0027100000000000023
s(I-1
I1
I1
tp1587
F-0.0010000000000000675
s(I1
I0
I0
tp1588
I0
s(I1
I1
I0
tp1589
F-0.0027100000000000405
s(I0
I0
I1
tp1590
F-0.0071757046351902734
s(I1
I0
I1
tp1591
I0
s(I-1
I0
I1
tp1592
I0
s(I0
I0
I0
tp1593
I0
s(I-1
I0
I0
tp1594
F-0.0019000000000000017
s(I0
I1
I0
tp1595
F-0.0019000000000000017
s(I1
I1
I1
tp1596
I0
ssS' 7777 77777M      77     '
p1597
(dp1598
(I-1
I1
I0
tp1599
F-0.0096184795755233973
s(I0
I1
I1
tp1600
F-0.0083322818300335388
s(I-1
I1
I1
tp1601
F-0.0056953279000001101
s(I1
I0
I0
tp1602
F-0.0040951000000000216
s(I1
I1
I0
tp1603
F-0.0034390000000000232
s(I0
I0
I1
tp1604
F-0.0027100000000000986
s(I1
I0
I1
tp1605
F0.041156074167579874
s(I-1
I0
I1
tp1606
F0.03604502538955167
s(I0
I0
I0
tp1607
F0.036078028651738502
s(I-1
I0
I0
tp1608
F-0.005217031000000088
s(I0
I1
I0
tp1609
F-0.0056953279000001491
s(I1
I1
I1
tp1610
F-0.0074581341716711217
ssS'   777    $$   '
p1611
(dp1612
(I-1
I1
I0
tp1613
F-0.0019000000000000616
s(I0
I1
I1
tp1614
F-0.0010000000000000009
s(I-1
I1
I1
tp1615
I0
s(I1
I0
I0
tp1616
I0
s(I1
I1
I0
tp1617
I0
s(I0
I0
I1
tp1618
F-0.0010000000000000009
s(I1
I0
I1
tp1619
I0
s(I-1
I0
I1
tp1620
I0
s(I0
I0
I0
tp1621
F-0.0010000000000000009
s(I-1
I0
I0
tp1622
I0
s(I0
I1
I0
tp1623
I0
s(I1
I1
I1
tp1624
I0
ssS'    7777 M          '
p1625
(dp1626
(I-1
I1
I0
tp1627
F-0.0099999999999873489
s(I0
I1
I1
tp1628
F-0.0097496844495008061
s(I-1
I1
I1
tp1629
F-0.0079410886790536941
s(I1
I0
I0
tp1630
F-0.0099930380139088941
s(I1
I1
I0
tp1631
F-0.0099726107255006056
s(I0
I0
I1
tp1632
F-0.0094766523669727182
s(I1
I0
I1
tp1633
F-0.0087842334540945248
s(I-1
I0
I1
tp1634
F-0.0098802748481745771
s(I0
I0
I0
tp1635
F-0.0091137061880348473
s(I-1
I0
I0
tp1636
F-0.0092023355692314249
s(I0
I1
I0
tp1637
F-0.0094185026299698996
s(I1
I1
I1
tp1638
F-0.0071757046351901173
ssS'    77    '
p1639
(dp1640
(I-1
I1
I0
tp1641
I0
s(I0
I1
I1
tp1642
I0
s(I1
I1
I0
tp1643
I0
s(I1
I0
I0
tp1644
I0
s(I-1
I1
I1
tp1645
I0
s(I0
I0
I1
tp1646
I0
s(I1
I0
I1
tp1647
I0
s(I-1
I0
I1
tp1648
I0
s(I0
I0
I0
tp1649
I0
s(I-1
I0
I0
tp1650
I0
s(I0
I1
I0
tp1651
I0
s(I1
I1
I1
tp1652
I0
ssS'        7777       $'
p1653
(dp1654
(I-1
I1
I0
tp1655
I0
s(I0
I1
I1
tp1656
I0
s(I-1
I1
I1
tp1657
I0
s(I1
I0
I0
tp1658
F-0.0019000000000000241
s(I1
I1
I0
tp1659
I0
s(I0
I0
I1
tp1660
I0
s(I1
I0
I1
tp1661
I0
s(I-1
I0
I1
tp1662
I0
s(I0
I0
I0
tp1663
I0
s(I-1
I0
I0
tp1664
F-0.0010000000000000009
s(I0
I1
I0
tp1665
I0
s(I1
I1
I1
tp1666
I0
ssS'    77   $'
p1667
(dp1668
(I-1
I1
I0
tp1669
I0
s(I0
I1
I1
tp1670
I0
s(I1
I1
I0
tp1671
F-0.0019000000000000883
s(I1
I0
I0
tp1672
I0
s(I-1
I1
I1
tp1673
F-0.0010000000000001564
s(I0
I0
I1
tp1674
I0
s(I1
I0
I1
tp1675
I0
s(I-1
I0
I1
tp1676
I0
s(I0
I0
I0
tp1677
I0
s(I-1
I0
I0
tp1678
I0
s(I0
I1
I0
tp1679
I0
s(I1
I1
I1
tp1680
F-0.0010000000000000232
ss.